target datalayout = "e-m:e-p270:32:32-p271:32:32-p272:64:64-i64:64-i128:128-f80:128-n8:16:32:64-S128"
target triple = "x86_64-pc-linux-gnu"

%union.SourceSpan = type { i64 }
%struct.Signature_ = type <{ %struct.CalleeAttributes, i16, i8, i32, i32, [4 x i8], ptr }>
%struct.CalleeAttributes = type { i8 }
%struct.Decl_ = type { ptr, ptr, %union.SourceSpan, i64, %union.anon, i32, %union.anon.0, i64, ptr, ptr, ptr, %union.anon.1 }
%union.anon = type { ptr }
%union.anon.0 = type { i16 }
%union.anon.1 = type { %struct.FuncDecl }
%struct.FuncDecl = type { i32, [4 x i8], %struct.Signature_, i32, i32, %union.anon.8 }
%union.anon.8 = type { %struct.anon.9 }
%struct.anon.9 = type { i16, %union.anon.10 }
%union.anon.10 = type { ptr }
%struct.VHeader_ = type { i32, i32, [0 x i8] }
%struct.anon.2 = type { ptr, ptr, %union.anon.3 }
%union.anon.3 = type { %struct.BitStructDecl }
%struct.BitStructDecl = type { ptr, ptr, i8 }
%struct.EnumDecl = type { ptr, ptr, ptr }
%struct.EnumConstantDecl = type { ptr, i32, i32 }

; Function Attrs: nounwind uwtable
define internal zeroext i1 @sema_analyse_attributes(ptr noundef %0, ptr noundef %1, ptr noundef %2, i32 noundef %3, ptr noundef %4) #0 {
  %6 = alloca ptr, align 8
  %7 = alloca ptr, align 8
  %8 = alloca ptr, align 8
  %9 = alloca i32, align 4
  %10 = alloca ptr, align 8
  store ptr %0, ptr %6, align 8
  store ptr %1, ptr %7, align 8
  store ptr %2, ptr %8, align 8
  store i32 %3, ptr %9, align 4
  store ptr %4, ptr %10, align 8
  %11 = load ptr, ptr %6, align 8
  %12 = load ptr, ptr %7, align 8
  %13 = load ptr, ptr %8, align 8
  %14 = load i32, ptr %9, align 4
  %15 = load ptr, ptr %10, align 8
  %16 = call zeroext i1 @sema_analyse_attributes_inner(ptr noundef %11, ptr noundef %12, ptr noundef %13, i32 noundef %14, ptr noundef null, ptr noundef %15)
  ret i1 %16
}

; Function Attrs: nounwind uwtable
define internal zeroext i1 @sema_analyse_error(ptr noundef %0, ptr noundef %1, ptr noundef %2) #0 {
  %4 = alloca ptr, align 8
  %5 = alloca ptr, align 8
  %6 = alloca i32, align 4
  %7 = alloca ptr, align 8
  %8 = alloca ptr, align 8
  %9 = alloca i1, align 1
  %10 = alloca ptr, align 8
  %11 = alloca ptr, align 8
  %12 = alloca ptr, align 8
  %13 = alloca i8, align 1
  %14 = alloca i32, align 4
  %15 = alloca i32, align 4
  %16 = alloca ptr, align 8
  store ptr %0, ptr %10, align 8
  store ptr %1, ptr %11, align 8
  store ptr %2, ptr %12, align 8
  %17 = load ptr, ptr %10, align 8
  %18 = load ptr, ptr %11, align 8
  %19 = load ptr, ptr %11, align 8
  %20 = getelementptr inbounds %struct.Decl_, ptr %19, i32 0, i32 9
  %21 = load ptr, ptr %20, align 8
  %22 = load ptr, ptr %12, align 8
  %23 = call zeroext i1 @sema_analyse_attributes(ptr noundef %17, ptr noundef %18, ptr noundef %21, i32 noundef 128, ptr noundef %22)
  br i1 %23, label %35, label %24

24:                                               ; preds = %3
  %25 = load ptr, ptr %11, align 8
  store ptr %25, ptr %4, align 8
  %26 = load ptr, ptr %4, align 8
  %27 = getelementptr inbounds %struct.Decl_, ptr %26, i32 0, i32 3
  %28 = load i64, ptr %27, align 8
  %29 = and i64 %28, -128
  store i64 %29, ptr %27, align 8
  %30 = load ptr, ptr %4, align 8
  %31 = getelementptr inbounds %struct.Decl_, ptr %30, i32 0, i32 3
  %32 = load i64, ptr %31, align 8
  %33 = and i64 %32, -897
  %34 = or i64 %33, 256
  store i64 %34, ptr %31, align 8
  store i1 false, ptr %9, align 1
  br label %109

35:                                               ; preds = %3
  %36 = load ptr, ptr %12, align 8
  %37 = load i8, ptr %36, align 1
  %38 = trunc i8 %37 to i1
  br i1 %38, label %39, label %40

39:                                               ; preds = %35
  store i1 true, ptr %9, align 1
  br label %109

40:                                               ; preds = %35
  %41 = load ptr, ptr %10, align 8
  %42 = load ptr, ptr %11, align 8
  %43 = call zeroext i1 @sema_resolve_implemented_interfaces(ptr noundef %41, ptr noundef %42, i1 noundef zeroext false)
  br i1 %43, label %55, label %44

44:                                               ; preds = %40
  %45 = load ptr, ptr %11, align 8
  store ptr %45, ptr %5, align 8
  %46 = load ptr, ptr %5, align 8
  %47 = getelementptr inbounds %struct.Decl_, ptr %46, i32 0, i32 3
  %48 = load i64, ptr %47, align 8
  %49 = and i64 %48, -128
  store i64 %49, ptr %47, align 8
  %50 = load ptr, ptr %5, align 8
  %51 = getelementptr inbounds %struct.Decl_, ptr %50, i32 0, i32 3
  %52 = load i64, ptr %51, align 8
  %53 = and i64 %52, -897
  %54 = or i64 %53, 256
  store i64 %54, ptr %51, align 8
  store i1 false, ptr %9, align 1
  br label %109

55:                                               ; preds = %40
  store i8 1, ptr %13, align 1
  %56 = load ptr, ptr %11, align 8
  %57 = getelementptr inbounds %struct.Decl_, ptr %56, i32 0, i32 11
  %58 = getelementptr inbounds %struct.anon.2, ptr %57, i32 0, i32 2
  %59 = getelementptr inbounds %struct.EnumDecl, ptr %58, i32 0, i32 0
  %60 = load ptr, ptr %59, align 8
  store ptr %60, ptr %7, align 8
  %61 = load ptr, ptr %7, align 8
  %62 = icmp ne ptr %61, null
  br i1 %62, label %64, label %63

63:                                               ; preds = %55
  store i32 0, ptr %6, align 4
  br label %69

64:                                               ; preds = %55
  %65 = load ptr, ptr %7, align 8
  store ptr %65, ptr %8, align 8
  %66 = load ptr, ptr %8, align 8
  %67 = getelementptr inbounds %struct.VHeader_, ptr %66, i64 -1
  %68 = load i32, ptr %67, align 4
  store i32 %68, ptr %6, align 4
  br label %69

69:                                               ; preds = %64, %63
  %70 = load i32, ptr %6, align 4
  store i32 %70, ptr %14, align 4
  store i32 0, ptr %15, align 4
  br label %71

71:                                               ; preds = %103, %69
  %72 = load i32, ptr %15, align 4
  %73 = load i32, ptr %14, align 4
  %74 = icmp ult i32 %72, %73
  br i1 %74, label %75, label %106

75:                                               ; preds = %71
  %76 = load ptr, ptr %11, align 8
  %77 = getelementptr inbounds %struct.Decl_, ptr %76, i32 0, i32 11
  %78 = getelementptr inbounds %struct.anon.2, ptr %77, i32 0, i32 2
  %79 = getelementptr inbounds %struct.EnumDecl, ptr %78, i32 0, i32 0
  %80 = load ptr, ptr %79, align 8
  %81 = load i32, ptr %15, align 4
  %82 = zext i32 %81 to i64
  %83 = getelementptr inbounds ptr, ptr %80, i64 %82
  %84 = load ptr, ptr %83, align 8
  store ptr %84, ptr %16, align 8
  %85 = load ptr, ptr %11, align 8
  %86 = getelementptr inbounds %struct.Decl_, ptr %85, i32 0, i32 10
  %87 = load ptr, ptr %86, align 8
  %88 = load ptr, ptr %16, align 8
  %89 = getelementptr inbounds %struct.Decl_, ptr %88, i32 0, i32 10
  store ptr %87, ptr %89, align 8
  br label %90

90:                                               ; preds = %75
  br label %91

91:                                               ; preds = %90
  %92 = load i32, ptr %15, align 4
  %93 = load ptr, ptr %16, align 8
  %94 = getelementptr inbounds %struct.Decl_, ptr %93, i32 0, i32 11
  %95 = getelementptr inbounds %struct.EnumConstantDecl, ptr %94, i32 0, i32 1
  store i32 %92, ptr %95, align 8
  br label %96

96:                                               ; preds = %91
  br label %97

97:                                               ; preds = %96
  %98 = load ptr, ptr %16, align 8
  %99 = getelementptr inbounds %struct.Decl_, ptr %98, i32 0, i32 3
  %100 = load i64, ptr %99, align 8
  %101 = and i64 %100, -897
  %102 = or i64 %101, 256
  store i64 %102, ptr %99, align 8
  br label %103

103:                                              ; preds = %97
  %104 = load i32, ptr %15, align 4
  %105 = add i32 %104, 1
  store i32 %105, ptr %15, align 4
  br label %71, !llvm.loop !32

106:                                              ; preds = %71
  %107 = load i8, ptr %13, align 1
  %108 = trunc i8 %107 to i1
  store i1 %108, ptr %9, align 1
  br label %109

109:                                              ; preds = %106, %44, %39, %24
  %110 = load i1, ptr %9, align 1
  ret i1 %110
}