; Function Attrs: nounwind uwtable
define internal fastcc noundef zeroext i1 @sema_analyse_error(ptr noundef %0, ptr noundef %1, ptr nocapture noundef %2) unnamed_addr #0 {
  %4 = getelementptr inbounds i8, ptr %1, i64 64
  %5 = load ptr, ptr %4, align 8
  %6 = tail call fastcc noundef zeroext i1 @sema_analyse_attributes_inner(ptr noundef %0, ptr noundef %1, ptr noundef %5, i32 noundef 128, ptr noundef null, ptr noundef %2)
  br i1 %6, label %7, label %.loopexit.sink.split

7:                                                ; preds = %3
  %8 = load i8, ptr %2, align 1
  %9 = trunc i8 %8 to i1
  br i1 %9, label %.loopexit, label %10

10:                                               ; preds = %7
  %11 = getelementptr i8, ptr %1, i64 80
  %.val = load ptr, ptr %11, align 8
  %12 = tail call fastcc zeroext i1 @sema_resolve_implemented_interfaces(ptr noundef %0, ptr %.val, i1 noundef zeroext false)
  br i1 %12, label %13, label %.loopexit.sink.split

13:                                               ; preds = %10
  %14 = getelementptr inbounds i8, ptr %1, i64 96
  %15 = load ptr, ptr %14, align 8
  %.not = icmp eq ptr %15, null
  br i1 %.not, label %.loopexit, label %16

16:                                               ; preds = %13
  %17 = getelementptr inbounds i8, ptr %15, i64 -8
  %18 = load i32, ptr %17, align 4
  %.not33 = icmp eq i32 %18, 0
  br i1 %.not33, label %.loopexit, label %.lr.ph

.lr.ph:                                           ; preds = %16
  %19 = getelementptr inbounds i8, ptr %1, i64 72
  %wide.trip.count = zext i32 %18 to i64
  br label %20

20:                                               ; preds = %.lr.ph, %20
  %indvars.iv = phi i64 [ 0, %.lr.ph ], [ %indvars.iv.next, %20 ]
  %21 = load ptr, ptr %14, align 8
  %22 = getelementptr inbounds ptr, ptr %21, i64 %indvars.iv
  %23 = load ptr, ptr %22, align 8
  %24 = load ptr, ptr %19, align 8
  %25 = getelementptr inbounds i8, ptr %23, i64 72
  store ptr %24, ptr %25, align 8
  %26 = getelementptr inbounds i8, ptr %23, i64 88
  %27 = trunc nuw i64 %indvars.iv to i32
  store i32 %27, ptr %26, align 8
  %28 = getelementptr inbounds i8, ptr %23, i64 24
  %29 = load i64, ptr %28, align 8
  %30 = and i64 %29, -897
  %31 = or disjoint i64 %30, 256
  store i64 %31, ptr %28, align 8
  %indvars.iv.next = add nuw nsw i64 %indvars.iv, 1
  %exitcond.not = icmp eq i64 %indvars.iv.next, %wide.trip.count
  br i1 %exitcond.not, label %.loopexit, label %20, !llvm.loop !32

.loopexit.sink.split:                             ; preds = %10, %3
  %32 = getelementptr inbounds i8, ptr %1, i64 24
  %33 = load i64, ptr %32, align 8
  %34 = and i64 %33, -1024
  %35 = or disjoint i64 %34, 256
  store i64 %35, ptr %32, align 8
  br label %.loopexit

.loopexit:                                        ; preds = %20, %.loopexit.sink.split, %13, %16, %7
  %.030 = phi i1 [ true, %7 ], [ true, %16 ], [ true, %13 ], [ false, %.loopexit.sink.split ], [ true, %20 ]
  ret i1 %.030
}